Certificate:
    Data:
        Version: 3 (0x2)
        Serial Number: 2 (0x2)
    Signature Algorithm: sha256WithRSAEncryption
        Issuer: C=SP, ST=MA, L=Madrid, O=Telef, OU=ConnInnov, CN=joseCA/name=EasyRSA/emailAddress=capovpn@telefonica.com
        Validity
            Not Before: Dec 16 16:14:20 2019 GMT
            Not After : Dec 13 16:14:20 2029 GMT
        Subject: C=SP, ST=MA, L=Madrid, O=Telef, OU=ConnInnov, CN=clientovpn/name=EasyRSA/emailAddress=clientovpn@telefonica.com
        Subject Public Key Info:
            Public Key Algorithm: rsaEncryption
                Public-Key: (2048 bit)
                Modulus:
                    00:b5:7a:fd:e0:5e:ed:8f:dd:67:8d:e1:29:26:38:
                    e1:0e:2f:7c:17:45:a4:d6:47:5f:ee:d5:33:8d:21:
                    bf:73:88:1c:0d:4c:6c:99:f9:16:c7:4c:32:0e:b3:
                    15:45:e8:81:7d:5d:64:fa:f6:46:ae:89:54:51:fd:
                    24:05:0d:2b:09:7d:d1:f7:ea:ab:1c:16:5d:35:ec:
                    f0:2f:38:f3:26:b0:04:25:e1:62:d1:f9:e2:1a:33:
                    0a:34:17:36:44:cc:37:7c:03:fd:bf:9b:4f:20:c9:
                    fe:3a:dd:21:2c:d0:bf:73:78:a8:84:1b:13:6e:36:
                    b3:0a:09:06:08:03:ea:8e:cd:c5:8a:ac:b3:94:61:
                    e2:e8:bd:f5:3e:cc:86:e6:4d:7b:0b:57:78:64:9a:
                    4d:0f:b4:9e:61:03:c1:51:73:21:e3:fb:9f:6f:53:
                    31:15:e3:0c:69:e7:17:d6:0b:43:0b:6b:b4:45:60:
                    15:ff:04:9b:fc:e3:81:b9:ec:04:14:19:d6:2a:8d:
                    b9:0d:de:8f:5d:b0:e4:2f:66:4c:7d:c1:98:ad:8e:
                    83:16:a8:6d:0c:55:34:4d:f2:3c:04:29:16:c6:8e:
                    57:c3:55:b5:6f:2d:0e:6e:71:a2:b7:08:59:88:c3:
                    ad:f2:23:b9:4b:f1:f1:08:41:c6:af:67:f8:cd:41:
                    67:8b
                Exponent: 65537 (0x10001)
        X509v3 extensions:
            X509v3 Basic Constraints: 
                CA:FALSE
            Netscape Comment: 
                Easy-RSA Generated Certificate
            X509v3 Subject Key Identifier: 
                BB:9A:18:DE:19:BE:3E:72:10:3F:45:98:E6:0A:95:88:65:BC:74:59
            X509v3 Authority Key Identifier: 
                keyid:6B:0B:9E:74:FC:07:4A:67:EB:38:05:D8:D9:FF:A7:CA:E7:3B:1D:40
                DirName:/C=SP/ST=MA/L=Madrid/O=Telef/OU=ConnInnov/CN=joseCA/name=EasyRSA/emailAddress=capovpn@telefonica.com
                serial:F2:71:65:CE:92:9F:14:24

            X509v3 Extended Key Usage: 
                TLS Web Client Authentication
            X509v3 Key Usage: 
                Digital Signature
            X509v3 Subject Alternative Name: 
                DNS:clientovpn
    Signature Algorithm: sha256WithRSAEncryption
         45:d7:09:31:b9:f4:e9:05:84:66:97:49:a6:54:0d:f2:a9:c2:
         4b:44:05:52:5c:e3:a7:07:67:a5:3c:ed:c0:4c:57:b4:60:e4:
         1d:6f:fe:90:4f:81:04:de:82:12:60:37:c2:c7:c9:3c:87:1e:
         ca:0c:ad:89:4e:b9:ee:5f:d0:c8:a7:4a:ac:24:70:4c:92:2a:
         86:63:fe:26:57:67:66:72:65:94:88:ca:17:55:b3:81:74:ce:
         3b:4f:f0:cb:77:1a:3f:a1:c4:b6:b0:2c:4d:11:db:6b:69:94:
         04:fa:23:cb:3e:f9:dd:08:a3:ea:09:3c:a5:0f:9a:b8:f4:e4:
         42:3c:b6:d4:7a:ae:aa:16:f8:a4:bc:05:00:16:f0:ee:ff:bc:
         18:b0:ec:9c:4a:76:45:31:88:4b:0f:6f:f6:50:a0:3d:60:56:
         19:de:e0:99:76:07:a2:ae:19:3c:27:ce:56:ec:1d:07:78:70:
         d5:fa:53:fd:e8:38:35:e7:f9:6d:0d:0b:e5:a5:b1:ac:5e:9a:
         8f:a2:ab:18:4a:82:ff:26:22:60:a3:46:0d:02:0b:97:c3:f0:
         34:04:f1:af:4e:b7:07:e8:b0:ba:2d:23:4c:a5:91:c0:01:88:
         92:e8:01:cd:46:c7:91:6c:fc:1b:d3:c5:60:81:1d:db:20:7d:
         2c:bf:37:18
-----BEGIN CERTIFICATE-----
MIIFHzCCBAegAwIBAgIBAjANBgkqhkiG9w0BAQsFADCBmTELMAkGA1UEBhMCU1Ax
CzAJBgNVBAgTAk1BMQ8wDQYDVQQHEwZNYWRyaWQxDjAMBgNVBAoTBVRlbGVmMRIw
EAYDVQQLEwlDb25uSW5ub3YxDzANBgNVBAMTBmpvc2VDQTEQMA4GA1UEKRMHRWFz
eVJTQTElMCMGCSqGSIb3DQEJARYWY2Fwb3ZwbkB0ZWxlZm9uaWNhLmNvbTAeFw0x
OTEyMTYxNjE0MjBaFw0yOTEyMTMxNjE0MjBaMIGgMQswCQYDVQQGEwJTUDELMAkG
A1UECBMCTUExDzANBgNVBAcTBk1hZHJpZDEOMAwGA1UEChMFVGVsZWYxEjAQBgNV
BAsTCUNvbm5Jbm5vdjETMBEGA1UEAxMKY2xpZW50b3ZwbjEQMA4GA1UEKRMHRWFz
eVJTQTEoMCYGCSqGSIb3DQEJARYZY2xpZW50b3ZwbkB0ZWxlZm9uaWNhLmNvbTCC
ASIwDQYJKoZIhvcNAQEBBQADggEPADCCAQoCggEBALV6/eBe7Y/dZ43hKSY44Q4v
fBdFpNZHX+7VM40hv3OIHA1MbJn5FsdMMg6zFUXogX1dZPr2Rq6JVFH9JAUNKwl9
0ffqqxwWXTXs8C848yawBCXhYtH54hozCjQXNkTMN3wD/b+bTyDJ/jrdISzQv3N4
qIQbE242swoJBggD6o7NxYqss5Rh4ui99T7MhuZNewtXeGSaTQ+0nmEDwVFzIeP7
n29TMRXjDGnnF9YLQwtrtEVgFf8Em/zjgbnsBBQZ1iqNuQ3ej12w5C9mTH3BmK2O
gxaobQxVNE3yPAQpFsaOV8NVtW8tDm5xorcIWYjDrfIjuUvx8QhBxq9n+M1BZ4sC
AwEAAaOCAWcwggFjMAkGA1UdEwQCMAAwLQYJYIZIAYb4QgENBCAWHkVhc3ktUlNB
IEdlbmVyYXRlZCBDZXJ0aWZpY2F0ZTAdBgNVHQ4EFgQUu5oY3hm+PnIQP0WY5gqV
iGW8dFkwgc4GA1UdIwSBxjCBw4AUawuedPwHSmfrOAXY2f+nyuc7HUChgZ+kgZww
gZkxCzAJBgNVBAYTAlNQMQswCQYDVQQIEwJNQTEPMA0GA1UEBxMGTWFkcmlkMQ4w
DAYDVQQKEwVUZWxlZjESMBAGA1UECxMJQ29ubklubm92MQ8wDQYDVQQDEwZqb3Nl
Q0ExEDAOBgNVBCkTB0Vhc3lSU0ExJTAjBgkqhkiG9w0BCQEWFmNhcG92cG5AdGVs
ZWZvbmljYS5jb22CCQDycWXOkp8UJDATBgNVHSUEDDAKBggrBgEFBQcDAjALBgNV
HQ8EBAMCB4AwFQYDVR0RBA4wDIIKY2xpZW50b3ZwbjANBgkqhkiG9w0BAQsFAAOC
AQEARdcJMbn06QWEZpdJplQN8qnCS0QFUlzjpwdnpTztwExXtGDkHW/+kE+BBN6C
EmA3wsfJPIceygytiU657l/QyKdKrCRwTJIqhmP+JldnZnJllIjKF1WzgXTOO0/w
y3caP6HEtrAsTRHba2mUBPojyz753Qij6gk8pQ+auPTkQjy21Hquqhb4pLwFABbw
7v+8GLDsnEp2RTGISw9v9lCgPWBWGd7gmXYHoq4ZPCfOVuwdB3hw1fpT/eg4Nef5
bQ0L5aWxrF6aj6KrGEqC/yYiYKNGDQILl8PwNATxr063B+iwui0jTKWRwAGIkugB
zUbHkWz8G9PFYIEd2yB9LL83GA==
-----END CERTIFICATE-----
